; Function Attrs: mustprogress nounwind uwtable
define dso_local void @_ZN4llvm24OutputCategoryAggregator16EnumerateResultsESt8functionIFvNS_9StringRefEjEE(ptr noundef nonnull readonly align 8 dereferenceable(49) %0, ptr noundef %1) local_unnamed_addr #0 align 2 {
  %3 = alloca %"class.llvm::StringRef", align 8
  %4 = alloca i32, align 4
  %5 = getelementptr inbounds i8, ptr %0, i64 24
  %6 = load ptr, ptr %5, align 8
  %7 = getelementptr inbounds i8, ptr %0, i64 8
  %.not11 = icmp eq ptr %6, %7
  br i1 %.not11, label %._crit_edge, label %.lr.ph

.lr.ph:                                           ; preds = %2
  %8 = getelementptr inbounds nuw i8, ptr %3, i64 8
  %9 = getelementptr inbounds nuw i8, ptr %1, i64 16
  %10 = getelementptr inbounds nuw i8, ptr %1, i64 24
  br label %11

11:                                               ; preds = %.lr.ph, %_ZNKSt8functionIFvN4llvm9StringRefEjEEclES1_j.exit
  %.sroa.08.012 = phi ptr [ %6, %.lr.ph ], [ %20, %_ZNKSt8functionIFvN4llvm9StringRefEjEEclES1_j.exit ]
  %12 = getelementptr inbounds nuw i8, ptr %.sroa.08.012, i64 32
  %13 = getelementptr inbounds i8, ptr %.sroa.08.012, i64 64
  %14 = call noundef ptr @_ZNKSt7__cxx1112basic_stringIcSt11char_traitsIcESaIcEE4dataEv(ptr noundef nonnull align 8 dereferenceable(32) %12) #26
  %15 = call noundef i64 @_ZNKSt7__cxx1112basic_stringIcSt11char_traitsIcESaIcEE6lengthEv(ptr noundef nonnull align 8 dereferenceable(32) %12) #26
  %16 = load i32, ptr %13, align 4
  call void @llvm.lifetime.start.p0(i64 16, ptr nonnull %3)
  call void @llvm.lifetime.start.p0(i64 4, ptr nonnull %4)
  store ptr %14, ptr %3, align 8
  store i64 %15, ptr %8, align 8
  store i32 %16, ptr %4, align 4
  %17 = load ptr, ptr %9, align 8
  %.not.i.i = icmp eq ptr %17, null
  br i1 %.not.i.i, label %18, label %_ZNKSt8functionIFvN4llvm9StringRefEjEEclES1_j.exit

18:                                               ; preds = %11
  call void @_ZSt25__throw_bad_function_callv() #22
  unreachable

_ZNKSt8functionIFvN4llvm9StringRefEjEEclES1_j.exit: ; preds = %11
  %19 = load ptr, ptr %10, align 8
  call void %19(ptr noundef nonnull align 8 dereferenceable(16) %1, ptr noundef nonnull align 8 dereferenceable(16) %3, ptr noundef nonnull align 4 dereferenceable(4) %4) #26
  call void @llvm.lifetime.end.p0(i64 16, ptr nonnull %3)
  call void @llvm.lifetime.end.p0(i64 4, ptr nonnull %4)
  %20 = call noundef ptr @_ZSt18_Rb_tree_incrementPSt18_Rb_tree_node_base(ptr noundef nonnull %.sroa.08.012) #25
  %.not = icmp eq ptr %20, %7
  br i1 %.not, label %._crit_edge, label %11

._crit_edge:                                      ; preds = %_ZNKSt8functionIFvN4llvm9StringRefEjEEclES1_j.exit, %2
  ret void
}